; Function Attrs: mustprogress uwtable
define dso_local noundef i32 @_Z12lua_gettableP9lua_Statei(ptr noundef %0, i32 noundef %1) local_unnamed_addr #3 {
  %3 = getelementptr inbounds nuw i8, ptr %0, i64 1
  %4 = load i8, ptr %3, align 1, !tbaa !21
  %5 = and i8 %4, 4
  %.not = icmp eq i8 %5, 0
  br i1 %.not, label %8, label %6

6:                                                ; preds = %2
  %7 = getelementptr inbounds nuw i8, ptr %0, i64 104
  tail call void @_Z16luaC_barrierbackP9lua_StateP8GCObjectPS2_(ptr noundef nonnull %0, ptr noundef nonnull %0, ptr noundef nonnull %7)
  br label %8

8:                                                ; preds = %6, %2
  %9 = icmp sgt i32 %1, 0
  br i1 %9, label %10, label %18

10:                                               ; preds = %8
  %11 = getelementptr inbounds nuw i8, ptr %0, i64 16
  %12 = load ptr, ptr %11, align 8, !tbaa !4
  %13 = zext nneg i32 %1 to i64
  %14 = getelementptr %struct.lua_TValue, ptr %12, i64 %13
  %15 = getelementptr i8, ptr %14, i64 -16
  %16 = getelementptr inbounds nuw i8, ptr %0, i64 8
  %17 = load ptr, ptr %16, align 8, !tbaa !19
  %.not.i = icmp ult ptr %15, %17
  %.luaO_nilobject_.i = select i1 %.not.i, ptr %15, ptr @luaO_nilobject_
  br label %_ZL10index2addrP9lua_Statei.exit

18:                                               ; preds = %8
  %19 = icmp sgt i32 %1, -10000
  br i1 %19, label %20, label %25

20:                                               ; preds = %18
  %21 = getelementptr inbounds nuw i8, ptr %0, i64 8
  %22 = load ptr, ptr %21, align 8, !tbaa !19
  %23 = sext i32 %1 to i64
  %24 = getelementptr inbounds %struct.lua_TValue, ptr %22, i64 %23
  br label %_ZL10index2addrP9lua_Statei.exit

25:                                               ; preds = %18
  %26 = tail call fastcc noundef ptr @_ZL11pseudo2addrP9lua_Statei(ptr noundef nonnull %0, i32 noundef %1)
  %.phi.trans.insert = getelementptr inbounds nuw i8, ptr %0, i64 8
  %.pre = load ptr, ptr %.phi.trans.insert, align 8, !tbaa !19
  br label %_ZL10index2addrP9lua_Statei.exit

_ZL10index2addrP9lua_Statei.exit:                 ; preds = %10, %20, %25
  %27 = phi ptr [ %17, %10 ], [ %22, %20 ], [ %.pre, %25 ]
  %.1.i = phi ptr [ %.luaO_nilobject_.i, %10 ], [ %24, %20 ], [ %26, %25 ]
  %28 = getelementptr inbounds nuw i8, ptr %0, i64 8
  %29 = getelementptr inbounds i8, ptr %27, i64 -16
  tail call void @_Z13luaV_gettableP9lua_StatePK10lua_TValuePS1_S4_(ptr noundef nonnull %0, ptr noundef %.1.i, ptr noundef nonnull %29, ptr noundef nonnull %29)
  %30 = load ptr, ptr %28, align 8, !tbaa !19
  %31 = getelementptr inbounds i8, ptr %30, i64 -4
  %32 = load i32, ptr %31, align 4, !tbaa !47
  ret i32 %32
}